; Function Attrs: mustprogress nofree norecurse nosync nounwind sspstrong willreturn memory(argmem: read) uwtable
define internal range(i64 0, 3) i64 @pm_encoding_shift_jis_alnum_char(ptr noundef readonly captures(none) %0, i64 noundef %1) #2 {
  %3 = load i8, ptr %0, align 1, !tbaa !7
  %4 = icmp sgt i8 %3, -1
  %5 = add nsw i8 %3, 95
  %or.cond.i = icmp ult i8 %5, 63
  %or.cond19.i = select i1 %4, i1 true, i1 %or.cond.i
  br i1 %or.cond19.i, label %pm_encoding_shift_jis_char_width.exit, label %6

6:                                                ; preds = %2
  %7 = icmp sgt i64 %1, 1
  br i1 %7, label %8, label %16

8:                                                ; preds = %6
  %9 = icmp ne i8 %3, -128
  %10 = icmp samesign ult i8 %3, -96
  %or.cond15.i = and i1 %9, %10
  %11 = add nsw i8 %3, 32
  %or.cond16.i = icmp ult i8 %11, 29
  %or.cond20.i = select i1 %or.cond15.i, i1 true, i1 %or.cond16.i
  br i1 %or.cond20.i, label %12, label %16

12:                                               ; preds = %8
  %13 = getelementptr i8, ptr %0, i64 1
  %14 = load i8, ptr %13, align 1, !tbaa !7
  %15 = add i8 %14, 3
  %or.cond17.i = icmp ult i8 %15, 67
  %.not.i = icmp eq i8 %14, 127
  %or.cond18.i = or i1 %.not.i, %or.cond17.i
  br i1 %or.cond18.i, label %16, label %pm_encoding_shift_jis_char_width.exit.thread

16:                                               ; preds = %12, %8, %6
  br label %pm_encoding_shift_jis_char_width.exit.thread

pm_encoding_shift_jis_char_width.exit:            ; preds = %2
  %17 = icmp slt i8 %3, 0
  br i1 %17, label %pm_encoding_shift_jis_char_width.exit.thread, label %18

18:                                               ; preds = %pm_encoding_shift_jis_char_width.exit
  %19 = zext nneg i8 %3 to i64
  %20 = getelementptr [256 x i8], ptr @pm_encoding_windows_874_table, i64 0, i64 %19
  %21 = load i8, ptr %20, align 1, !tbaa !7
  %22 = lshr i8 %21, 1
  %.lobit.i = and i8 %22, 1
  %23 = zext nneg i8 %.lobit.i to i64
  br label %pm_encoding_shift_jis_char_width.exit.thread

pm_encoding_shift_jis_char_width.exit.thread:     ; preds = %12, %16, %pm_encoding_shift_jis_char_width.exit, %18
  %24 = phi i64 [ 1, %pm_encoding_shift_jis_char_width.exit ], [ %23, %18 ], [ 2, %12 ], [ 0, %16 ]
  ret i64 %24
}